******************************************************************************
             TMS320C2000 Linker PC v5.2.6                      
******************************************************************************
>> Linked Sun Jan 21 16:39:55 2018

OUTPUT FILE NAME:   <Bd_0.out>
ENTRY POINT SYMBOL: "_c_int00"  address: 00009ead


MEMORY CONFIGURATION

         name            origin    length      used     unused   attr    fill
----------------------  --------  ---------  --------  --------  ----  --------
PAGE 0:
  BEGIN                 00000000   00000002  00000002  00000000  RWIX
  RAMM0                 00000050   000003b0  00000000  000003b0  RWIX
  RAML0                 00008000   00001000  00000156  00000eaa  RWIX
  RAML1                 00009000   00003000  00000fd1  0000202f  RWIX
  ZONE7A                00200000   0000fc00  00000000  0000fc00  RWIX
  CSM_RSVD              0033ff80   00000076  00000000  00000076  RWIX
  CSM_PWL               0033fff8   00000008  00000000  00000008  RWIX
  ADC_CAL               00380080   00000009  00000007  00000002  RWIX
  IQTABLES              003fe000   00000b50  00000000  00000b50  RWIX
  IQTABLES2             003feb50   0000008c  00000000  0000008c  RWIX
  FPUTABLES             003febdc   000006a0  00000000  000006a0  RWIX
  BOOTROM               003ff27c   00000d44  00000000  00000d44  RWIX
  RESET                 003fffc0   00000002  00000000  00000002  RWIX

PAGE 1:
  BOOT_RSVD             00000002   0000004e  00000000  0000004e  RWIX
  RAMM1                 00000400   00000400  00000300  00000100  RWIX
  DEV_EMU               00000880   00000180  000000d0  000000b0  RWIX
  FLASH_REGS            00000a80   00000060  00000008  00000058  RWIX
  CSM                   00000ae0   00000010  00000010  00000000  RWIX
  ADC_MIRROR            00000b00   00000010  00000010  00000000  RWIX
  XINTF                 00000b20   00000020  0000001e  00000002  RWIX
  CPU_TIMER0            00000c00   00000008  00000008  00000000  RWIX
  CPU_TIMER1            00000c08   00000008  00000008  00000000  RWIX
  CPU_TIMER2            00000c10   00000008  00000008  00000000  RWIX
  PIE_CTRL              00000ce0   00000020  0000001a  00000006  RWIX
  PIE_VECT              00000d00   00000100  00000100  00000000  RWIX
  DMA                   00001000   00000200  000000e0  00000120  RWIX
  MCBSPA                00005000   00000040  00000025  0000001b  RWIX
  MCBSPB                00005040   00000040  00000025  0000001b  RWIX
  ECANA                 00006000   00000040  00000034  0000000c  RWIX
  ECANA_LAM             00006040   00000040  00000040  00000000  RWIX
  ECANA_MOTS            00006080   00000040  00000040  00000000  RWIX
  ECANA_MOTO            000060c0   00000040  00000040  00000000  RWIX
  ECANA_MBOX            00006100   00000100  00000100  00000000  RWIX
  ECANB                 00006200   00000040  00000034  0000000c  RWIX
  ECANB_LAM             00006240   00000040  00000040  00000000  RWIX
  ECANB_MOTS            00006280   00000040  00000040  00000000  RWIX
  ECANB_MOTO            000062c0   00000040  00000040  00000000  RWIX
  ECANB_MBOX            00006300   00000100  00000100  00000000  RWIX
  EPWM1                 00006800   00000022  00000022  00000000  RWIX
  EPWM2                 00006840   00000022  00000022  00000000  RWIX
  EPWM3                 00006880   00000022  00000022  00000000  RWIX
  EPWM4                 000068c0   00000022  00000022  00000000  RWIX
  EPWM5                 00006900   00000022  00000022  00000000  RWIX
  EPWM6                 00006940   00000022  00000022  00000000  RWIX
  ECAP1                 00006a00   00000020  00000020  00000000  RWIX
  ECAP2                 00006a20   00000020  00000020  00000000  RWIX
  ECAP3                 00006a40   00000020  00000020  00000000  RWIX
  ECAP4                 00006a60   00000020  00000020  00000000  RWIX
  ECAP5                 00006a80   00000020  00000020  00000000  RWIX
  ECAP6                 00006aa0   00000020  00000020  00000000  RWIX
  EQEP1                 00006b00   00000040  00000040  00000000  RWIX
  EQEP2                 00006b40   00000040  00000040  00000000  RWIX
  GPIOCTRL              00006f80   00000040  0000002e  00000012  RWIX
  GPIODAT               00006fc0   00000020  00000020  00000000  RWIX
  GPIOINT               00006fe0   00000020  0000000a  00000016  RWIX
  SYSTEM                00007010   00000020  00000020  00000000  RWIX
  SPIA                  00007040   00000010  00000010  00000000  RWIX
  SCIA                  00007050   00000010  00000010  00000000  RWIX
  XINTRUPT              00007070   00000010  00000010  00000000  RWIX
  ADC                   00007100   00000020  0000001e  00000002  RWIX
  SCIB                  00007750   00000010  00000010  00000000  RWIX
  SCIC                  00007770   00000010  00000010  00000000  RWIX
  I2CA                  00007900   00000040  00000022  0000001e  RWIX
  RAML4                 0000c000   00001000  000000c8  00000f38  RWIX
  RAML5                 0000d000   00001000  00000100  00000f00  RWIX
  RAML6                 0000e000   00001000  00000000  00001000  RWIX
  RAML7                 0000f000   00001000  00000000  00001000  RWIX
  ZONE7B                0020fc00   00000400  00000000  00000400  RWIX
  CSM_PWL               0033fff8   00000008  00000008  00000000  RWIX
  PARTID                00380090   00000001  00000000  00000001  RWIX


SECTION ALLOCATION MAP

 output                                  attributes/
section   page    origin      length       input sections
--------  ----  ----------  ----------   ----------------
codestart 
*          0    00000000    00000002     
                  00000000    00000002     DSP2833x_CodeStartBranch.obj (codestart)

.pinit     0    00008000    00000000     UNINITIALIZED

.cinit     0    00008000    00000148     
                  00008000    000000ae     User_PID.obj (.cinit)
                  000080ae    0000006f     User_Program.obj (.cinit)
                  0000811d    00000011     main.obj (.cinit)
                  0000812e    0000000a     rts2800_fpu32.lib : _lock.obj (.cinit)
                  00008138    0000000a                       : exit.obj (.cinit)
                  00008142    00000004     User_Init.obj (.cinit)
                  00008146    00000002     --HOLE-- [fill = 0]

ramfuncs   0    00008148    0000000e     
                  00008148    0000000e     DSP2833x_SysCtrl.obj (ramfuncs)

.text      0    00009000    00000fd1     
                  00009000    00000323     DSP2833x_DefaultIsr.obj (.text)
                  00009323    000001f7     User_Init.obj (.text)
                  0000951a    000001e0     User_Program.obj (.text)
                  000096fa    00000186     DSP2833x_ECan.obj (.text)
                  00009880    0000015b     User_PID.obj (.text)
                  000099db    000000f3     DSP2833x_SysCtrl.obj (.text)
                  00009ace    000000ef     DSP2833x_Xintf.obj (.text)
                  00009bbd    000000d0     main.obj (.text)
                  00009c8d    000000c8     DSP2833x_EPwm.obj (.text)
                  00009d55    00000088     rts2800_fpu32.lib : fs_div.obj (.text)
                  00009ddd    0000007a     DSP2833x_CpuTimers.obj (.text)
                  00009e57    00000056     DSP2833x_EQep.obj (.text)
                  00009ead    00000046     rts2800_fpu32.lib : boot.obj (.text)
                  00009ef3    00000028     DSP2833x_PieCtrl.obj (.text)
                  00009f1b    00000022     rts2800_fpu32.lib : i_div.obj (.text)
                  00009f3d    00000020     DSP2833x_PieVect.obj (.text)
                  00009f5d    0000001b     rts2800_fpu32.lib : args_main.obj (.text)
                  00009f78    00000019                       : exit.obj (.text)
                  00009f91    00000017     DSP2833x_Gpio.obj (.text)
                  00009fa8    00000014     DSP2833x_Adc.obj (.text)
                  00009fbc    00000009     rts2800_fpu32.lib : _lock.obj (.text)
                  00009fc5    00000008     DSP2833x_CodeStartBranch.obj (.text)
                  00009fcd    00000004     DSP2833x_usDelay.obj (.text)

csm_rsvd   0    0033ff80    00000000     DSECT

csmpasswds 
*          0    0033fff8    00000000     DSECT

.adc_cal   0    00380080    00000007     NOLOAD SECTION
                  00380080    00000007     DSP2833x_ADC_cal.obj (.adc_cal)

.reset     0    003fffc0    00000002     DSECT
                  003fffc0    00000002     rts2800_fpu32.lib : boot.obj (.reset)

.stack     1    00000400    00000300     UNINITIALIZED
                  00000400    00000300     --HOLE--

DevEmuRegsFile 
*          1    00000880    000000d0     UNINITIALIZED
                  00000880    000000d0     DSP2833x_GlobalVariableDefs.obj (DevEmuRegsFile)

FlashRegsFile 
*          1    00000a80    00000008     UNINITIALIZED
                  00000a80    00000008     DSP2833x_GlobalVariableDefs.obj (FlashRegsFile)

CsmRegsFile 
*          1    00000ae0    00000010     UNINITIALIZED
                  00000ae0    00000010     DSP2833x_GlobalVariableDefs.obj (CsmRegsFile)

AdcMirrorFile 
*          1    00000b00    00000010     UNINITIALIZED
                  00000b00    00000010     DSP2833x_GlobalVariableDefs.obj (AdcMirrorFile)

XintfRegsFile 
*          1    00000b20    0000001e     UNINITIALIZED
                  00000b20    0000001e     DSP2833x_GlobalVariableDefs.obj (XintfRegsFile)

CpuTimer0RegsFile 
*          1    00000c00    00000008     UNINITIALIZED
                  00000c00    00000008     DSP2833x_GlobalVariableDefs.obj (CpuTimer0RegsFile)

CpuTimer1RegsFile 
*          1    00000c08    00000008     UNINITIALIZED
                  00000c08    00000008     DSP2833x_GlobalVariableDefs.obj (CpuTimer1RegsFile)

CpuTimer2RegsFile 
*          1    00000c10    00000008     UNINITIALIZED
                  00000c10    00000008     DSP2833x_GlobalVariableDefs.obj (CpuTimer2RegsFile)

PieCtrlRegsFile 
*          1    00000ce0    0000001a     UNINITIALIZED
                  00000ce0    0000001a     DSP2833x_GlobalVariableDefs.obj (PieCtrlRegsFile)

PieVectTableFile 
*          1    00000d00    00000100     UNINITIALIZED
                  00000d00    00000100     DSP2833x_GlobalVariableDefs.obj (PieVectTableFile)

DmaRegsFile 
*          1    00001000    000000e0     UNINITIALIZED
                  00001000    000000e0     DSP2833x_GlobalVariableDefs.obj (DmaRegsFile)

McbspaRegsFile 
*          1    00005000    00000025     UNINITIALIZED
                  00005000    00000025     DSP2833x_GlobalVariableDefs.obj (McbspaRegsFile)

McbspbRegsFile 
*          1    00005040    00000025     UNINITIALIZED
                  00005040    00000025     DSP2833x_GlobalVariableDefs.obj (McbspbRegsFile)

ECanaRegsFile 
*          1    00006000    00000034     UNINITIALIZED
                  00006000    00000034     DSP2833x_GlobalVariableDefs.obj (ECanaRegsFile)

ECanaLAMRegsFile 
*          1    00006040    00000040     UNINITIALIZED
                  00006040    00000040     DSP2833x_GlobalVariableDefs.obj (ECanaLAMRegsFile)

ECanaMOTSRegsFile 
*          1    00006080    00000040     UNINITIALIZED
                  00006080    00000040     DSP2833x_GlobalVariableDefs.obj (ECanaMOTSRegsFile)

ECanaMOTORegsFile 
*          1    000060c0    00000040     UNINITIALIZED
                  000060c0    00000040     DSP2833x_GlobalVariableDefs.obj (ECanaMOTORegsFile)

ECanaMboxesFile 
*          1    00006100    00000100     UNINITIALIZED
                  00006100    00000100     DSP2833x_GlobalVariableDefs.obj (ECanaMboxesFile)

ECanbRegsFile 
*          1    00006200    00000034     UNINITIALIZED
                  00006200    00000034     DSP2833x_GlobalVariableDefs.obj (ECanbRegsFile)

ECanbLAMRegsFile 
*          1    00006240    00000040     UNINITIALIZED
                  00006240    00000040     DSP2833x_GlobalVariableDefs.obj (ECanbLAMRegsFile)

ECanbMOTSRegsFile 
*          1    00006280    00000040     UNINITIALIZED
                  00006280    00000040     DSP2833x_GlobalVariableDefs.obj (ECanbMOTSRegsFile)

ECanbMOTORegsFile 
*          1    000062c0    00000040     UNINITIALIZED
                  000062c0    00000040     DSP2833x_GlobalVariableDefs.obj (ECanbMOTORegsFile)

ECanbMboxesFile 
*          1    00006300    00000100     UNINITIALIZED
                  00006300    00000100     DSP2833x_GlobalVariableDefs.obj (ECanbMboxesFile)

EPwm1RegsFile 
*          1    00006800    00000022     UNINITIALIZED
                  00006800    00000022     DSP2833x_GlobalVariableDefs.obj (EPwm1RegsFile)

EPwm2RegsFile 
*          1    00006840    00000022     UNINITIALIZED
                  00006840    00000022     DSP2833x_GlobalVariableDefs.obj (EPwm2RegsFile)

EPwm3RegsFile 
*          1    00006880    00000022     UNINITIALIZED
                  00006880    00000022     DSP2833x_GlobalVariableDefs.obj (EPwm3RegsFile)

EPwm4RegsFile 
*          1    000068c0    00000022     UNINITIALIZED
                  000068c0    00000022     DSP2833x_GlobalVariableDefs.obj (EPwm4RegsFile)

EPwm5RegsFile 
*          1    00006900    00000022     UNINITIALIZED
                  00006900    00000022     DSP2833x_GlobalVariableDefs.obj (EPwm5RegsFile)

EPwm6RegsFile 
*          1    00006940    00000022     UNINITIALIZED
                  00006940    00000022     DSP2833x_GlobalVariableDefs.obj (EPwm6RegsFile)

ECap1RegsFile 
*          1    00006a00    00000020     UNINITIALIZED
                  00006a00    00000020     DSP2833x_GlobalVariableDefs.obj (ECap1RegsFile)

ECap2RegsFile 
*          1    00006a20    00000020     UNINITIALIZED
                  00006a20    00000020     DSP2833x_GlobalVariableDefs.obj (ECap2RegsFile)

ECap3RegsFile 
*          1    00006a40    00000020     UNINITIALIZED
                  00006a40    00000020     DSP2833x_GlobalVariableDefs.obj (ECap3RegsFile)

ECap4RegsFile 
*          1    00006a60    00000020     UNINITIALIZED
                  00006a60    00000020     DSP2833x_GlobalVariableDefs.obj (ECap4RegsFile)

ECap5RegsFile 
*          1    00006a80    00000020     UNINITIALIZED
                  00006a80    00000020     DSP2833x_GlobalVariableDefs.obj (ECap5RegsFile)

ECap6RegsFile 
*          1    00006aa0    00000020     UNINITIALIZED
                  00006aa0    00000020     DSP2833x_GlobalVariableDefs.obj (ECap6RegsFile)

EQep1RegsFile 
*          1    00006b00    00000040     UNINITIALIZED
                  00006b00    00000040     DSP2833x_GlobalVariableDefs.obj (EQep1RegsFile)

EQep2RegsFile 
*          1    00006b40    00000040     UNINITIALIZED
                  00006b40    00000040     DSP2833x_GlobalVariableDefs.obj (EQep2RegsFile)

GpioCtrlRegsFile 
*          1    00006f80    0000002e     UNINITIALIZED
                  00006f80    0000002e     DSP2833x_GlobalVariableDefs.obj (GpioCtrlRegsFile)

GpioDataRegsFile 
*          1    00006fc0    00000020     UNINITIALIZED
                  00006fc0    00000020     DSP2833x_GlobalVariableDefs.obj (GpioDataRegsFile)

GpioIntRegsFile 
*          1    00006fe0    0000000a     UNINITIALIZED
                  00006fe0    0000000a     DSP2833x_GlobalVariableDefs.obj (GpioIntRegsFile)

SysCtrlRegsFile 
*          1    00007010    00000020     UNINITIALIZED
                  00007010    00000020     DSP2833x_GlobalVariableDefs.obj (SysCtrlRegsFile)

SpiaRegsFile 
*          1    00007040    00000010     UNINITIALIZED
                  00007040    00000010     DSP2833x_GlobalVariableDefs.obj (SpiaRegsFile)

SciaRegsFile 
*          1    00007050    00000010     UNINITIALIZED
                  00007050    00000010     DSP2833x_GlobalVariableDefs.obj (SciaRegsFile)

XIntruptRegsFile 
*          1    00007070    00000010     UNINITIALIZED
                  00007070    00000010     DSP2833x_GlobalVariableDefs.obj (XIntruptRegsFile)

AdcRegsFile 
*          1    00007100    0000001e     UNINITIALIZED
                  00007100    0000001e     DSP2833x_GlobalVariableDefs.obj (AdcRegsFile)

ScibRegsFile 
*          1    00007750    00000010     UNINITIALIZED
                  00007750    00000010     DSP2833x_GlobalVariableDefs.obj (ScibRegsFile)

ScicRegsFile 
*          1    00007770    00000010     UNINITIALIZED
                  00007770    00000010     DSP2833x_GlobalVariableDefs.obj (ScicRegsFile)

I2caRegsFile 
*          1    00007900    00000022     UNINITIALIZED
                  00007900    00000022     DSP2833x_GlobalVariableDefs.obj (I2caRegsFile)

.ebss      1    0000c000    000000c8     UNINITIALIZED
                  0000c000    0000004e     User_Program.obj (.ebss)
                  0000c04e    00000018     DSP2833x_CpuTimers.obj (.ebss)
                  0000c066    00000006     main.obj (.ebss)
                  0000c06c    00000004     rts2800_fpu32.lib : _lock.obj (.ebss)
                  0000c070    00000004                       : exit.obj (.ebss)
                  0000c074    00000001     User_Init.obj (.ebss)
                  0000c075    0000000b     --HOLE--
                  0000c080    00000048     User_PID.obj (.ebss)

.econst    1    0000d000    00000100     
                  0000d000    00000100     DSP2833x_PieVect.obj (.econst)

CsmPwlFile 
*          1    0033fff8    00000008     UNINITIALIZED
                  0033fff8    00000008     DSP2833x_GlobalVariableDefs.obj (CsmPwlFile)


GLOBAL SYMBOLS: SORTED ALPHABETICALLY BY Name 

address    name
--------   ----
00009000   .text
00009f78   C$$EXIT
00009d55   FS$$DIV
00009f1b   I$$DIV
00009f2c   I$$MOD
00009551   _ADC
000090e6   _ADCINT_ISR
000094d8   _ADCInit
00380080   _ADC_cal
0000c03c   _AD_Out
00000b00   _AdcMirror
00007100   _AdcRegs
0000c030   _AdcResult
00009323   _CPUTimer0_Init
00009e1c   _ConfigCpuTimer
00009676   _Control_process
0000c05e   _CpuTimer0
00000c00   _CpuTimer0Regs
0000c04e   _CpuTimer1
00000c08   _CpuTimer1Regs
0000c056   _CpuTimer2
00000c10   _CpuTimer2Regs
0033fff8   _CsmPwl
00000ae0   _CsmRegs
00009a9d   _CsmUnlock
00009014   _DATALOG_ISR
000095fd   _DCM_PWM_DRIVER
00009208   _DINTCH1_ISR
00009212   _DINTCH2_ISR
0000921c   _DINTCH3_ISR
00009226   _DINTCH4_ISR
00009230   _DINTCH5_ISR
0000923a   _DINTCH6_ISR
00009fcd   _DSP28x_usDelay
0000953e   _DelayForDataReading
00009542   _DelayUs
00000880   _DevEmuRegs
000099ee   _DisableDog
00001000   _DmaRegs
00009294   _ECAN0INTA_ISR
000092a8   _ECAN0INTB_ISR
0000929e   _ECAN1INTA_ISR
000092b2   _ECAN1INTB_ISR
0000917c   _ECAP1_INT_ISR
00009186   _ECAP2_INT_ISR
00009190   _ECAP3_INT_ISR
0000919a   _ECAP4_INT_ISR
000091a4   _ECAP5_INT_ISR
000091ae   _ECAP6_INT_ISR
00006040   _ECanaLAMRegs
000060c0   _ECanaMOTORegs
00006080   _ECanaMOTSRegs
00006100   _ECanaMboxes
00006000   _ECanaRegs
00006240   _ECanbLAMRegs
000062c0   _ECanbMOTORegs
00006280   _ECanbMOTSRegs
00006300   _ECanbMboxes
00006200   _ECanbRegs
00006a00   _ECap1Regs
00006a20   _ECap2Regs
00006a40   _ECap3Regs
00006a60   _ECap4Regs
00006a80   _ECap5Regs
00006aa0   _ECap6Regs
00009302   _EMPTY_ISR
00009028   _EMUINT_ISR
00009423   _EPWM1Init
00009140   _EPWM1_INT_ISR
00009104   _EPWM1_TZINT_ISR
00009466   _EPWM2Init
0000914a   _EPWM2_INT_ISR
0000910e   _EPWM2_TZINT_ISR
0000949f   _EPWM3Init
00009154   _EPWM3_INT_ISR
00009118   _EPWM3_TZINT_ISR
0000915e   _EPWM4_INT_ISR
00009122   _EPWM4_TZINT_ISR
00009168   _EPWM5_INT_ISR
0000912c   _EPWM5_TZINT_ISR
00009172   _EPWM6_INT_ISR
00009136   _EPWM6_TZINT_ISR
00006800   _EPwm1Regs
00006840   _EPwm2Regs
00006880   _EPwm3Regs
000068c0   _EPwm4Regs
00006900   _EPwm5Regs
00006940   _EPwm6Regs
000091b8   _EQEP1_INT_ISR
000091c2   _EQEP2_INT_ISR
00006b00   _EQep1Regs
00006b40   _EQep2Regs
00009f12   _EnableInterrupts
00000a80   _FlashRegs
00009334   _GPIO_Init
00006f80   _GpioCtrlRegs
00006fc0   _GpioDataRegs
00006fe0   _GpioIntRegs
00009244   _I2CINT1A_ISR
0000924e   _I2CINT2A_ISR
00007900   _I2caRegs
0000903c   _ILLEGAL_ISR
00009000   _INT13_ISR
0000900a   _INT14_ISR
0000c06a   _I_LED
0000c044   _Ia_Buffer
0000c01e   _Ia_Current
0000c028   _Ia_average
00009fa8   _InitAdc
00009ddd   _InitCpuTimers
000096fa   _InitECan
00009851   _InitECanGpio
000096ff   _InitECana
00009856   _InitECanaGpio
000097cc   _InitECanb
0000986c   _InitECanbGpio
00009c8d   _InitEPwm
00009c9b   _InitEPwm1Gpio
00009cad   _InitEPwm2Gpio
00009cbf   _InitEPwm3Gpio
00009cd3   _InitEPwm4Gpio
00009ce7   _InitEPwm5Gpio
00009cf9   _InitEPwm6Gpio
00009c8e   _InitEPwmGpio
00009d0b   _InitEPwmSyncGpio
00009e57   _InitEQep
00009e5d   _InitEQep1Gpio
00009e87   _InitEQep2Gpio
00009e58   _InitEQepGpio
00008148   _InitFlash
00009f91   _InitGpio
00009a44   _InitPeripheralClocks
00009ef3   _InitPieCtrl
00009f3d   _InitPieVectTable
000099f6   _InitPll
000099db   _InitSysCtrl
00009d1f   _InitTzGpio
00009ace   _InitXintf
00009b67   _InitXintf16Gpio
00009b20   _InitXintf32Gpio
0000c01a   _Is
0000c068   _LED
000092f8   _LUF_ISR
000092ee   _LVF_ISR
000091f4   _MRINTA_ISR
000091e0   _MRINTB_ISR
000091fe   _MXINTA_ISR
000091ea   _MXINTB_ISR
00005000   _McbspaRegs
00005040   _McbspbRegs
00009032   _NMI_ISR
0000930f   _PIE_RESERVED
00009509   _POSSPEED_Init
00009356   _POWER_IO_Init
00009386   _PWM_GPio_Init
00000ce0   _PieCtrlRegs
00000d00   _PieVectTable
0000d000   _PieVectTableInit
0000c038   _Position_Rota
0000c02c   _Position_Rota_joint
0000c012   _Position_TEMP
0000c018   _Present_Motor_Position
0000951a   _RESOLVER_DATCON
0000901e   _RTOSINT_ISR
0000926c   _SCIRXINTA_ISR
00009280   _SCIRXINTB_ISR
00009258   _SCIRXINTC_ISR
00009276   _SCITXINTA_ISR
0000928a   _SCITXINTB_ISR
00009262   _SCITXINTC_ISR
000090be   _SEQ1INT_ISR
000090c8   _SEQ2INT_ISR
0000c008   _SP
000091cc   _SPIRXINTA_ISR
000091d6   _SPITXINTA_ISR
0000c080   _SP_set
00007050   _SciaRegs
00007750   _ScibRegs
00007770   _ScicRegs
0000c040   _Sensor_Coeff
000099e4   _ServiceDog
0000c010   _Speed_Current_joint
0000c016   _Speed_Current_temp
0000c014   _Speed_Current_temp_joint
00007040   _SpiaRegs
00007010   _SysCtrlRegs
000090f0   _TINT0_ISR
000090a0   _USER10_ISR
000090aa   _USER11_ISR
000090b4   _USER12_ISR
00009046   _USER1_ISR
00009050   _USER2_ISR
0000905a   _USER3_ISR
00009064   _USER4_ISR
0000906e   _USER5_ISR
00009078   _USER6_ISR
00009082   _USER7_ISR
0000908c   _USER8_ISR
00009096   _USER9_ISR
0000c034   _Voltage_Offset
000090fa   _WAKEINT_ISR
000090d2   _XINT1_ISR
000090dc   _XINT2_ISR
000092bc   _XINT3_ISR
000092c6   _XINT4_ISR
000092d0   _XINT5_ISR
000092da   _XINT6_ISR
000092e4   _XINT7_ISR
00007070   _XIntruptRegs
00000b20   _XintfRegs
00000700   __STACK_END
00000300   __STACK_SIZE
00000001   __TI_args_main
ffffffff   ___binit__
ffffffff   ___c_args__
00008000   ___cinit__
00009fd1   ___etext__
ffffffff   ___pinit__
00009000   ___text__
00009f5d   __args_main
0000c070   __cleanup_ptr
0000c072   __dtors_ptr
0000c06e   __lock
00009fc4   __nop
00009fc0   __register_lock
00009fbc   __register_unlock
00000400   __stack
0000c06c   __unlock
00009f78   _abort
00009ead   _c_int00
00009c2c   _cpu_timer0_isr
0000c005   _current_times
0000c006   _direction
0000c067   _en_2136
00009c48   _epwm1_isr
00009f7a   _exit
0000c007   _i
0000c074   _i2
0000996d   _iCONTROLLER
0000c0a2   _iERR
0000c0bc   _iERR1
0000c096   _iERR2
0000c00c   _iFB
0000c0a4   _iKD
0000c09e   _iKI
0000c08a   _iKP
0000c094   _iOUT
0000c09c   _iOUT_DOWN_LIM
0000c09a   _iOUT_LAST
0000c098   _iOUT_UP_LIM
0000c00a   _iREF
0000c000   _i_var
0000c001   _icounter
0000c066   _loop
00009bbd   _main
0000c01c   _max_a
0000c02a   _max_b
0000c020   _min_a
0000c026   _min_b
0000c004   _mode_choose
0000c009   _motor_data
0000c00e   _motor_position
00009880   _pCONTROLLER
0000c0aa   _pERR
0000c0ae   _pERR1
0000c0c0   _pERR2
0000c0ac   _pFB
0000c0a8   _pKD
0000c0b2   _pKI
0000c0b0   _pKP
0000c0be   _pOUT
0000c0c6   _pOUT_DOWN_LIM
0000c0c4   _pOUT_LAST
0000c0c2   _pOUT_UP_LIM
0000c0a6   _pREF
0000c002   _position_times
00009319   _rsvd_ISR
00009912   _sCONTROLLER
00009618   _sCalculation
0000c08c   _sERR
0000c092   _sERR1
0000c090   _sERR2
0000c08e   _sFB
0000c0ba   _sKD
0000c0b4   _sKI
0000c0b6   _sKP
0000c0a0   _sOUT
0000c086   _sOUT_DOWN_LIM
0000c082   _sOUT_LAST
0000c088   _sOUT_UP_LIM
0000c0b8   _sREF
0000c024   _s_a
0000c022   _s_b
0000c084   _spOUT
000093b6   _spi_GPio_Init
0000941b   _spi_fifo_init
00009408   _spi_init
0000c003   _velocity_times
ffffffff   binit
00008000   cinit
00000000   code_start
00009fd1   etext
ffffffff   pinit


GLOBAL SYMBOLS: SORTED BY Symbol Address 

address    name
--------   ----
00000000   code_start
00000001   __TI_args_main
00000300   __STACK_SIZE
00000400   __stack
00000700   __STACK_END
00000880   _DevEmuRegs
00000a80   _FlashRegs
00000ae0   _CsmRegs
00000b00   _AdcMirror
00000b20   _XintfRegs
00000c00   _CpuTimer0Regs
00000c08   _CpuTimer1Regs
00000c10   _CpuTimer2Regs
00000ce0   _PieCtrlRegs
00000d00   _PieVectTable
00001000   _DmaRegs
00005000   _McbspaRegs
00005040   _McbspbRegs
00006000   _ECanaRegs
00006040   _ECanaLAMRegs
00006080   _ECanaMOTSRegs
000060c0   _ECanaMOTORegs
00006100   _ECanaMboxes
00006200   _ECanbRegs
00006240   _ECanbLAMRegs
00006280   _ECanbMOTSRegs
000062c0   _ECanbMOTORegs
00006300   _ECanbMboxes
00006800   _EPwm1Regs
00006840   _EPwm2Regs
00006880   _EPwm3Regs
000068c0   _EPwm4Regs
00006900   _EPwm5Regs
00006940   _EPwm6Regs
00006a00   _ECap1Regs
00006a20   _ECap2Regs
00006a40   _ECap3Regs
00006a60   _ECap4Regs
00006a80   _ECap5Regs
00006aa0   _ECap6Regs
00006b00   _EQep1Regs
00006b40   _EQep2Regs
00006f80   _GpioCtrlRegs
00006fc0   _GpioDataRegs
00006fe0   _GpioIntRegs
00007010   _SysCtrlRegs
00007040   _SpiaRegs
00007050   _SciaRegs
00007070   _XIntruptRegs
00007100   _AdcRegs
00007750   _ScibRegs
00007770   _ScicRegs
00007900   _I2caRegs
00008000   ___cinit__
00008000   cinit
00008148   _InitFlash
00009000   .text
00009000   _INT13_ISR
00009000   ___text__
0000900a   _INT14_ISR
00009014   _DATALOG_ISR
0000901e   _RTOSINT_ISR
00009028   _EMUINT_ISR
00009032   _NMI_ISR
0000903c   _ILLEGAL_ISR
00009046   _USER1_ISR
00009050   _USER2_ISR
0000905a   _USER3_ISR
00009064   _USER4_ISR
0000906e   _USER5_ISR
00009078   _USER6_ISR
00009082   _USER7_ISR
0000908c   _USER8_ISR
00009096   _USER9_ISR
000090a0   _USER10_ISR
000090aa   _USER11_ISR
000090b4   _USER12_ISR
000090be   _SEQ1INT_ISR
000090c8   _SEQ2INT_ISR
000090d2   _XINT1_ISR
000090dc   _XINT2_ISR
000090e6   _ADCINT_ISR
000090f0   _TINT0_ISR
000090fa   _WAKEINT_ISR
00009104   _EPWM1_TZINT_ISR
0000910e   _EPWM2_TZINT_ISR
00009118   _EPWM3_TZINT_ISR
00009122   _EPWM4_TZINT_ISR
0000912c   _EPWM5_TZINT_ISR
00009136   _EPWM6_TZINT_ISR
00009140   _EPWM1_INT_ISR
0000914a   _EPWM2_INT_ISR
00009154   _EPWM3_INT_ISR
0000915e   _EPWM4_INT_ISR
00009168   _EPWM5_INT_ISR
00009172   _EPWM6_INT_ISR
0000917c   _ECAP1_INT_ISR
00009186   _ECAP2_INT_ISR
00009190   _ECAP3_INT_ISR
0000919a   _ECAP4_INT_ISR
000091a4   _ECAP5_INT_ISR
000091ae   _ECAP6_INT_ISR
000091b8   _EQEP1_INT_ISR
000091c2   _EQEP2_INT_ISR
000091cc   _SPIRXINTA_ISR
000091d6   _SPITXINTA_ISR
000091e0   _MRINTB_ISR
000091ea   _MXINTB_ISR
000091f4   _MRINTA_ISR
000091fe   _MXINTA_ISR
00009208   _DINTCH1_ISR
00009212   _DINTCH2_ISR
0000921c   _DINTCH3_ISR
00009226   _DINTCH4_ISR
00009230   _DINTCH5_ISR
0000923a   _DINTCH6_ISR
00009244   _I2CINT1A_ISR
0000924e   _I2CINT2A_ISR
00009258   _SCIRXINTC_ISR
00009262   _SCITXINTC_ISR
0000926c   _SCIRXINTA_ISR
00009276   _SCITXINTA_ISR
00009280   _SCIRXINTB_ISR
0000928a   _SCITXINTB_ISR
00009294   _ECAN0INTA_ISR
0000929e   _ECAN1INTA_ISR
000092a8   _ECAN0INTB_ISR
000092b2   _ECAN1INTB_ISR
000092bc   _XINT3_ISR
000092c6   _XINT4_ISR
000092d0   _XINT5_ISR
000092da   _XINT6_ISR
000092e4   _XINT7_ISR
000092ee   _LVF_ISR
000092f8   _LUF_ISR
00009302   _EMPTY_ISR
0000930f   _PIE_RESERVED
00009319   _rsvd_ISR
00009323   _CPUTimer0_Init
00009334   _GPIO_Init
00009356   _POWER_IO_Init
00009386   _PWM_GPio_Init
000093b6   _spi_GPio_Init
00009408   _spi_init
0000941b   _spi_fifo_init
00009423   _EPWM1Init
00009466   _EPWM2Init
0000949f   _EPWM3Init
000094d8   _ADCInit
00009509   _POSSPEED_Init
0000951a   _RESOLVER_DATCON
0000953e   _DelayForDataReading
00009542   _DelayUs
00009551   _ADC
000095fd   _DCM_PWM_DRIVER
00009618   _sCalculation
00009676   _Control_process
000096fa   _InitECan
000096ff   _InitECana
000097cc   _InitECanb
00009851   _InitECanGpio
00009856   _InitECanaGpio
0000986c   _InitECanbGpio
00009880   _pCONTROLLER
00009912   _sCONTROLLER
0000996d   _iCONTROLLER
000099db   _InitSysCtrl
000099e4   _ServiceDog
000099ee   _DisableDog
000099f6   _InitPll
00009a44   _InitPeripheralClocks
00009a9d   _CsmUnlock
00009ace   _InitXintf
00009b20   _InitXintf32Gpio
00009b67   _InitXintf16Gpio
00009bbd   _main
00009c2c   _cpu_timer0_isr
00009c48   _epwm1_isr
00009c8d   _InitEPwm
00009c8e   _InitEPwmGpio
00009c9b   _InitEPwm1Gpio
00009cad   _InitEPwm2Gpio
00009cbf   _InitEPwm3Gpio
00009cd3   _InitEPwm4Gpio
00009ce7   _InitEPwm5Gpio
00009cf9   _InitEPwm6Gpio
00009d0b   _InitEPwmSyncGpio
00009d1f   _InitTzGpio
00009d55   FS$$DIV
00009ddd   _InitCpuTimers
00009e1c   _ConfigCpuTimer
00009e57   _InitEQep
00009e58   _InitEQepGpio
00009e5d   _InitEQep1Gpio
00009e87   _InitEQep2Gpio
00009ead   _c_int00
00009ef3   _InitPieCtrl
00009f12   _EnableInterrupts
00009f1b   I$$DIV
00009f2c   I$$MOD
00009f3d   _InitPieVectTable
00009f5d   __args_main
00009f78   C$$EXIT
00009f78   _abort
00009f7a   _exit
00009f91   _InitGpio
00009fa8   _InitAdc
00009fbc   __register_unlock
00009fc0   __register_lock
00009fc4   __nop
00009fcd   _DSP28x_usDelay
00009fd1   ___etext__
00009fd1   etext
0000c000   _i_var
0000c001   _icounter
0000c002   _position_times
0000c003   _velocity_times
0000c004   _mode_choose
0000c005   _current_times
0000c006   _direction
0000c007   _i
0000c008   _SP
0000c009   _motor_data
0000c00a   _iREF
0000c00c   _iFB
0000c00e   _motor_position
0000c010   _Speed_Current_joint
0000c012   _Position_TEMP
0000c014   _Speed_Current_temp_joint
0000c016   _Speed_Current_temp
0000c018   _Present_Motor_Position
0000c01a   _Is
0000c01c   _max_a
0000c01e   _Ia_Current
0000c020   _min_a
0000c022   _s_b
0000c024   _s_a
0000c026   _min_b
0000c028   _Ia_average
0000c02a   _max_b
0000c02c   _Position_Rota_joint
0000c030   _AdcResult
0000c034   _Voltage_Offset
0000c038   _Position_Rota
0000c03c   _AD_Out
0000c040   _Sensor_Coeff
0000c044   _Ia_Buffer
0000c04e   _CpuTimer1
0000c056   _CpuTimer2
0000c05e   _CpuTimer0
0000c066   _loop
0000c067   _en_2136
0000c068   _LED
0000c06a   _I_LED
0000c06c   __unlock
0000c06e   __lock
0000c070   __cleanup_ptr
0000c072   __dtors_ptr
0000c074   _i2
0000c080   _SP_set
0000c082   _sOUT_LAST
0000c084   _spOUT
0000c086   _sOUT_DOWN_LIM
0000c088   _sOUT_UP_LIM
0000c08a   _iKP
0000c08c   _sERR
0000c08e   _sFB
0000c090   _sERR2
0000c092   _sERR1
0000c094   _iOUT
0000c096   _iERR2
0000c098   _iOUT_UP_LIM
0000c09a   _iOUT_LAST
0000c09c   _iOUT_DOWN_LIM
0000c09e   _iKI
0000c0a0   _sOUT
0000c0a2   _iERR
0000c0a4   _iKD
0000c0a6   _pREF
0000c0a8   _pKD
0000c0aa   _pERR
0000c0ac   _pFB
0000c0ae   _pERR1
0000c0b0   _pKP
0000c0b2   _pKI
0000c0b4   _sKI
0000c0b6   _sKP
0000c0b8   _sREF
0000c0ba   _sKD
0000c0bc   _iERR1
0000c0be   _pOUT
0000c0c0   _pERR2
0000c0c2   _pOUT_UP_LIM
0000c0c4   _pOUT_LAST
0000c0c6   _pOUT_DOWN_LIM
0000d000   _PieVectTableInit
0033fff8   _CsmPwl
00380080   _ADC_cal
ffffffff   ___binit__
ffffffff   ___c_args__
ffffffff   ___pinit__
ffffffff   binit
ffffffff   pinit

[303 symbols]
